target datalayout = "e-m:e-p270:32:32-p271:32:32-p272:64:64-i64:64-i128:128-f80:128-n8:16:32:64-S128"
target triple = "x86_64-pc-linux-gnu"

%struct.AVEncryptionInitInfo = type { ptr, i32, ptr, i32, i32, ptr, i32, ptr }

; Function Attrs: nounwind uwtable
define ptr @av_encryption_init_info_alloc(i32 noundef %0, i32 noundef %1, i32 noundef %2, i32 noundef %3) #0 {
  %5 = alloca ptr, align 8
  %6 = alloca i32, align 4
  %7 = alloca i32, align 4
  %8 = alloca i32, align 4
  %9 = alloca i32, align 4
  %10 = alloca ptr, align 8
  %11 = alloca i32, align 4
  %12 = alloca i32, align 4
  store i32 %0, ptr %6, align 4, !tbaa !4
  store i32 %1, ptr %7, align 4, !tbaa !4
  store i32 %2, ptr %8, align 4, !tbaa !4
  store i32 %3, ptr %9, align 4, !tbaa !4
  call void @llvm.lifetime.start.p0(i64 8, ptr %10) #5
  call void @llvm.lifetime.start.p0(i64 4, ptr %11) #5
  %13 = call noalias ptr @av_mallocz(i64 noundef 56)
  store ptr %13, ptr %10, align 8, !tbaa !35
  %14 = load ptr, ptr %10, align 8, !tbaa !35
  %15 = icmp ne ptr %14, null
  br i1 %15, label %17, label %16

16:                                               ; preds = %4
  store ptr null, ptr %5, align 8
  store i32 1, ptr %12, align 4
  br label %114

17:                                               ; preds = %4
  %18 = load i32, ptr %6, align 4, !tbaa !4
  %19 = zext i32 %18 to i64
  %20 = call noalias ptr @av_mallocz(i64 noundef %19)
  %21 = load ptr, ptr %10, align 8, !tbaa !35
  %22 = getelementptr inbounds nuw %struct.AVEncryptionInitInfo, ptr %21, i32 0, i32 0
  store ptr %20, ptr %22, align 8, !tbaa !37
  %23 = load i32, ptr %6, align 4, !tbaa !4
  %24 = load ptr, ptr %10, align 8, !tbaa !35
  %25 = getelementptr inbounds nuw %struct.AVEncryptionInitInfo, ptr %24, i32 0, i32 1
  store i32 %23, ptr %25, align 8, !tbaa !41
  %26 = load i32, ptr %8, align 4, !tbaa !4
  %27 = icmp ne i32 %26, 0
  br i1 %27, label %28, label %32

28:                                               ; preds = %17
  %29 = load i32, ptr %7, align 4, !tbaa !4
  %30 = zext i32 %29 to i64
  %31 = call noalias ptr @av_calloc(i64 noundef %30, i64 noundef 8)
  br label %33

32:                                               ; preds = %17
  br label %33

33:                                               ; preds = %32, %28
  %34 = phi ptr [ %31, %28 ], [ null, %32 ]
  %35 = load ptr, ptr %10, align 8, !tbaa !35
  %36 = getelementptr inbounds nuw %struct.AVEncryptionInitInfo, ptr %35, i32 0, i32 2
  store ptr %34, ptr %36, align 8, !tbaa !42
  %37 = load i32, ptr %7, align 4, !tbaa !4
  %38 = load ptr, ptr %10, align 8, !tbaa !35
  %39 = getelementptr inbounds nuw %struct.AVEncryptionInitInfo, ptr %38, i32 0, i32 3
  store i32 %37, ptr %39, align 8, !tbaa !43
  %40 = load i32, ptr %8, align 4, !tbaa !4
  %41 = load ptr, ptr %10, align 8, !tbaa !35
  %42 = getelementptr inbounds nuw %struct.AVEncryptionInitInfo, ptr %41, i32 0, i32 4
  store i32 %40, ptr %42, align 4, !tbaa !44
  %43 = load i32, ptr %9, align 4, !tbaa !4
  %44 = zext i32 %43 to i64
  %45 = call noalias ptr @av_mallocz(i64 noundef %44)
  %46 = load ptr, ptr %10, align 8, !tbaa !35
  %47 = getelementptr inbounds nuw %struct.AVEncryptionInitInfo, ptr %46, i32 0, i32 5
  store ptr %45, ptr %47, align 8, !tbaa !45
  %48 = load i32, ptr %9, align 4, !tbaa !4
  %49 = load ptr, ptr %10, align 8, !tbaa !35
  %50 = getelementptr inbounds nuw %struct.AVEncryptionInitInfo, ptr %49, i32 0, i32 6
  store i32 %48, ptr %50, align 8, !tbaa !46
  %51 = load ptr, ptr %10, align 8, !tbaa !35
  %52 = getelementptr inbounds nuw %struct.AVEncryptionInitInfo, ptr %51, i32 0, i32 0
  %53 = load ptr, ptr %52, align 8, !tbaa !37
  %54 = icmp ne ptr %53, null
  br i1 %54, label %58, label %55

55:                                               ; preds = %33
  %56 = load i32, ptr %6, align 4, !tbaa !4
  %57 = icmp ne i32 %56, 0
  br i1 %57, label %77, label %58

58:                                               ; preds = %55, %33
  %59 = load ptr, ptr %10, align 8, !tbaa !35
  %60 = getelementptr inbounds nuw %struct.AVEncryptionInitInfo, ptr %59, i32 0, i32 5
  %61 = load ptr, ptr %60, align 8, !tbaa !45
  %62 = icmp ne ptr %61, null
  br i1 %62, label %66, label %63

63:                                               ; preds = %58
  %64 = load i32, ptr %9, align 4, !tbaa !4
  %65 = icmp ne i32 %64, 0
  br i1 %65, label %77, label %66

66:                                               ; preds = %63, %58
  %67 = load ptr, ptr %10, align 8, !tbaa !35
  %68 = getelementptr inbounds nuw %struct.AVEncryptionInitInfo, ptr %67, i32 0, i32 2
  %69 = load ptr, ptr %68, align 8, !tbaa !42
  %70 = icmp ne ptr %69, null
  br i1 %70, label %79, label %71

71:                                               ; preds = %66
  %72 = load i32, ptr %7, align 4, !tbaa !4
  %73 = icmp ne i32 %72, 0
  br i1 %73, label %74, label %79

74:                                               ; preds = %71
  %75 = load i32, ptr %8, align 4, !tbaa !4
  %76 = icmp ne i32 %75, 0
  br i1 %76, label %77, label %79

77:                                               ; preds = %74, %63, %55
  %78 = load ptr, ptr %10, align 8, !tbaa !35
  call void @av_encryption_init_info_free(ptr noundef %78)
  store ptr null, ptr %5, align 8
  store i32 1, ptr %12, align 4
  br label %114

79:                                               ; preds = %74, %71, %66
  %80 = load i32, ptr %8, align 4, !tbaa !4
  %81 = icmp ne i32 %80, 0
  br i1 %81, label %82, label %112

82:                                               ; preds = %79
  store i32 0, ptr %11, align 4, !tbaa !4
  br label %83

83:                                               ; preds = %108, %82
  %84 = load i32, ptr %11, align 4, !tbaa !4
  %85 = load i32, ptr %7, align 4, !tbaa !4
  %86 = icmp ult i32 %84, %85
  br i1 %86, label %87, label %111

87:                                               ; preds = %83
  %88 = load i32, ptr %8, align 4, !tbaa !4
  %89 = zext i32 %88 to i64
  %90 = call noalias ptr @av_mallocz(i64 noundef %89)
  %91 = load ptr, ptr %10, align 8, !tbaa !35
  %92 = getelementptr inbounds nuw %struct.AVEncryptionInitInfo, ptr %91, i32 0, i32 2
  %93 = load ptr, ptr %92, align 8, !tbaa !42
  %94 = load i32, ptr %11, align 4, !tbaa !4
  %95 = zext i32 %94 to i64
  %96 = getelementptr inbounds nuw ptr, ptr %93, i64 %95
  store ptr %90, ptr %96, align 8, !tbaa !23
  %97 = load ptr, ptr %10, align 8, !tbaa !35
  %98 = getelementptr inbounds nuw %struct.AVEncryptionInitInfo, ptr %97, i32 0, i32 2
  %99 = load ptr, ptr %98, align 8, !tbaa !42
  %100 = load i32, ptr %11, align 4, !tbaa !4
  %101 = zext i32 %100 to i64
  %102 = getelementptr inbounds nuw ptr, ptr %99, i64 %101
  %103 = load ptr, ptr %102, align 8, !tbaa !23
  %104 = icmp ne ptr %103, null
  br i1 %104, label %107, label %105

105:                                              ; preds = %87
  %106 = load ptr, ptr %10, align 8, !tbaa !35
  call void @av_encryption_init_info_free(ptr noundef %106)
  store ptr null, ptr %5, align 8
  store i32 1, ptr %12, align 4
  br label %114

107:                                              ; preds = %87
  br label %108

108:                                              ; preds = %107
  %109 = load i32, ptr %11, align 4, !tbaa !4
  %110 = add i32 %109, 1
  store i32 %110, ptr %11, align 4, !tbaa !4
  br label %83, !llvm.loop !47

111:                                              ; preds = %83
  br label %112

112:                                              ; preds = %111, %79
  %113 = load ptr, ptr %10, align 8, !tbaa !35
  store ptr %113, ptr %5, align 8
  store i32 1, ptr %12, align 4
  br label %114

114:                                              ; preds = %112, %105, %77, %16
  call void @llvm.lifetime.end.p0(i64 4, ptr %11) #5
  call void @llvm.lifetime.end.p0(i64 8, ptr %10) #5
  %115 = load ptr, ptr %5, align 8
  ret ptr %115
}