; Function Attrs: nounwind uwtable
define ptr @av_encryption_init_info_alloc(i32 noundef %0, i32 noundef %1, i32 noundef %2, i32 noundef %3) local_unnamed_addr #0 {
  %5 = tail call noalias ptr @av_mallocz(i64 noundef 56) #4
  %.not = icmp eq ptr %5, null
  br i1 %.not, label %.loopexit, label %6

6:                                                ; preds = %4
  %7 = zext i32 %0 to i64
  %8 = tail call noalias ptr @av_mallocz(i64 noundef %7) #4
  store ptr %8, ptr %5, align 8, !tbaa !29
  %9 = getelementptr inbounds nuw i8, ptr %5, i64 8
  store i32 %0, ptr %9, align 8, !tbaa !34
  %10 = icmp ne i32 %2, 0
  br i1 %10, label %11, label %14

11:                                               ; preds = %6
  %12 = zext i32 %1 to i64
  %13 = tail call noalias ptr @av_calloc(i64 noundef %12, i64 noundef 8) #4
  br label %14

14:                                               ; preds = %6, %11
  %15 = phi ptr [ %13, %11 ], [ null, %6 ]
  %16 = getelementptr inbounds nuw i8, ptr %5, i64 16
  store ptr %15, ptr %16, align 8, !tbaa !35
  %17 = getelementptr inbounds nuw i8, ptr %5, i64 24
  store i32 %1, ptr %17, align 8, !tbaa !36
  %18 = getelementptr inbounds nuw i8, ptr %5, i64 28
  store i32 %2, ptr %18, align 4, !tbaa !37
  %19 = zext i32 %3 to i64
  %20 = tail call noalias ptr @av_mallocz(i64 noundef %19) #4
  %21 = getelementptr inbounds nuw i8, ptr %5, i64 32
  store ptr %20, ptr %21, align 8, !tbaa !38
  %22 = getelementptr inbounds nuw i8, ptr %5, i64 40
  store i32 %3, ptr %22, align 8, !tbaa !39
  %23 = icmp eq ptr %8, null
  %24 = icmp ne i32 %0, 0
  %or.cond = and i1 %24, %23
  br i1 %or.cond, label %.loopexit.sink.split, label %25

25:                                               ; preds = %14
  %26 = icmp eq ptr %20, null
  %27 = icmp ne i32 %3, 0
  %or.cond3 = and i1 %27, %26
  br i1 %or.cond3, label %.loopexit.sink.split, label %28

28:                                               ; preds = %25
  %29 = icmp eq ptr %15, null
  %30 = icmp ne i32 %1, 0
  %or.cond5 = and i1 %30, %29
  %or.cond7 = and i1 %10, %or.cond5
  br i1 %or.cond7, label %.loopexit.sink.split, label %31

31:                                               ; preds = %28
  %or.cond47 = and i1 %10, %30
  br i1 %or.cond47, label %.lr.ph, label %.loopexit

.lr.ph:                                           ; preds = %31
  %32 = zext i32 %2 to i64
  %wide.trip.count = zext i32 %1 to i64
  br label %34

33:                                               ; preds = %34
  %indvars.iv.next = add nuw nsw i64 %indvars.iv, 1
  %exitcond.not = icmp eq i64 %indvars.iv.next, %wide.trip.count
  br i1 %exitcond.not, label %.loopexit, label %34, !llvm.loop !40

34:                                               ; preds = %.lr.ph, %33
  %indvars.iv = phi i64 [ 0, %.lr.ph ], [ %indvars.iv.next, %33 ]
  %35 = tail call noalias ptr @av_mallocz(i64 noundef %32) #4
  %36 = load ptr, ptr %16, align 8, !tbaa !35
  %37 = getelementptr inbounds nuw ptr, ptr %36, i64 %indvars.iv
  store ptr %35, ptr %37, align 8, !tbaa !41
  %.not45 = icmp eq ptr %35, null
  br i1 %.not45, label %.loopexit.sink.split, label %33

.loopexit.sink.split:                             ; preds = %34, %14, %25, %28
  tail call void @av_encryption_init_info_free(ptr noundef nonnull %5)
  br label %.loopexit

.loopexit:                                        ; preds = %33, %.loopexit.sink.split, %31, %4
  %.042 = phi ptr [ null, %4 ], [ %5, %31 ], [ null, %.loopexit.sink.split ], [ %5, %33 ]
  ret ptr %.042
}